; Function Attrs: mustprogress nofree norecurse nosync nounwind willreturn memory(argmem: read) uwtable
define noundef i64 @_ZNK7rocksdb11FileIndexer13NumLevelIndexEv(ptr noundef nonnull readonly align 8 captures(none) dereferenceable(192) %0) local_unnamed_addr #4 align 2 {
  %2 = getelementptr inbounds nuw i8, ptr %0, i64 16
  %3 = load i64, ptr %2, align 8, !tbaa !23
  %4 = getelementptr inbounds nuw i8, ptr %0, i64 160
  %5 = getelementptr inbounds nuw i8, ptr %0, i64 168
  %6 = load ptr, ptr %5, align 8, !tbaa !25
  %7 = load ptr, ptr %4, align 8, !tbaa !26
  %8 = ptrtoint ptr %6 to i64
  %9 = ptrtoint ptr %7 to i64
  %10 = sub i64 %8, %9
  %11 = ashr exact i64 %10, 4
  %12 = add i64 %11, %3
  ret i64 %12
}